Certificate:
    Data:
        Version: 3 (0x2)
        Serial Number: 4096 (0x1000)
        Signature Algorithm: sha1WithRSAEncryption
        Issuer: C=AU, ST=Some-State, O=Internet Widgits Pty Ltd
        Validity
            Not Before: May  1 14:49:14 2013 GMT
            Not After : Mar 10 14:49:14 2023 GMT
        Subject: C=AU, ST=Some-State, O=Internet Widgits Pty Ltd
        Subject Public Key Info:
            Public Key Algorithm: rsaEncryption
            RSA Public Key: (2048 bit)
                Modulus (2048 bit):
                    00:c6:0f:89:3f:9e:35:06:1a:48:8b:77:88:11:d0:
                    29:42:53:bf:7e:e9:35:b2:b7:2a:20:a2:2d:ce:57:
                    61:1d:53:16:0f:c2:9c:c2:b1:5f:51:df:b2:bc:8f:
                    94:bb:ca:57:89:41:3b:95:8b:07:7f:fa:df:91:02:
                    80:b0:f9:82:04:fb:3d:33:c3:85:d8:39:67:b8:5c:
                    2b:13:d4:76:b5:4a:81:f0:23:7c:e2:78:84:fc:79:
                    1d:e2:44:ab:6c:7d:df:71:ae:f0:66:b1:09:da:9b:
                    68:8a:4d:d3:a7:b4:80:c6:b8:da:21:90:a4:9f:16:
                    cd:e7:92:26:e5:08:1d:f5:14:7e:3a:83:2a:53:0c:
                    13:56:35:63:b5:4f:98:8e:97:33:26:4b:55:0d:04:
                    83:b6:2d:fe:b5:02:a6:f5:5a:21:7b:97:51:a0:0e:
                    d8:79:26:26:6e:0d:13:78:2f:85:9b:7e:31:51:f2:
                    65:72:b4:28:50:f7:57:41:20:a0:42:c1:a9:3c:3f:
                    69:1a:5c:9d:12:6a:08:e9:1e:92:50:7c:2b:77:9b:
                    67:16:d8:58:5b:2a:d2:8e:e3:2d:34:fb:43:34:99:
                    66:9e:92:8e:84:80:7a:11:af:fa:7e:72:b4:5f:d2:
                    9b:dd:0b:05:a1:53:49:a4:93:4e:31:4b:40:d0:d0:
                    21:43
                Exponent: 65537 (0x10001)
        X509v3 extensions:
            X509v3 Basic Constraints: 
                CA:FALSE
            Netscape Comment: 
                OpenSSL Generated Certificate
            X509v3 Subject Key Identifier: 
                F0:51:E6:FC:4B:E8:B2:FA:20:3D:8E:3C:8B:4A:58:D4:C8:60:1D:EC
            X509v3 Authority Key Identifier: 
                keyid:BB:07:4D:BB:1F:F6:48:91:6D:E7:82:6D:52:AD:1D:17:FD:A4:C2:C0

    Signature Algorithm: sha1WithRSAEncryption
        19:b1:63:5f:db:f5:f9:f2:c1:64:e9:73:92:79:4c:1f:e4:45:
        d1:e9:31:8f:c7:14:07:81:66:ec:af:57:54:14:f6:ca:a5:92:
        74:9c:c6:ec:29:15:85:73:49:e8:90:a8:57:3b:c6:bb:65:be:
        af:ff:ba:b9:f1:23:7d:17:09:49:b0:00:7a:f5:87:b6:9a:c2:
        2d:43:39:84:6b:2e:f8:2a:82:2d:5e:e5:ac:0e:b9:25:5f:23:
        77:e9:7c:eb:7e:92:8f:b9:d5:40:d6:b8:c4:e0:36:4e:5f:50:
        99:fc:63:a0:dc:73:1a:34:44:7b:ef:50:45:41:75:ee:72:61:
        9f:c7:82:76:5d:d0:8a:30:9a:b7:1a:b2:89:aa:8a:c7:26:c3:
        43:2c:9d:b4:e2:87:b2:21:b4:cb:92:0a:7a:85:51:69:e1:d6:
        b9:40:41:9f:60:d3:ad:b9:15:3e:eb:3b:e9:5b:bd:85:0a:62:
        4b:49:ef:89:dc:10:c0:05:16:d8:91:17:cf:bf:1f:ef:0e:e5:
        10:eb:08:a3:82:1d:07:c2:92:fc:73:88:ee:18:e0:c6:c7:1b:
        98:20:88:bd:61:ae:93:fd:5f:43:1e:65:5d:22:e3:45:41:54:
        95:fe:4e:3f:81:5b:cb:71:28:9a:9f:3b:45:9f:ce:0f:6c:0e:
        a6:64:99:04
-----BEGIN CERTIFICATE-----
MIIDgTCCAmmgAwIBAgICEAAwDQYJKoZIhvcNAQEFBQAwRTELMAkGA1UEBhMCQVUx
EzARBgNVBAgTClNvbWUtU3RhdGUxITAfBgNVBAoTGEludGVybmV0IFdpZGdpdHMg
UHR5IEx0ZDAeFw0xMzA1MDExNDQ5MTRaFw0yMzAzMTAxNDQ5MTRaMEUxCzAJBgNV
BAYTAkFVMRMwEQYDVQQIEwpTb21lLVN0YXRlMSEwHwYDVQQKExhJbnRlcm5ldCBX
aWRnaXRzIFB0eSBMdGQwggEiMA0GCSqGSIb3DQEBAQUAA4IBDwAwggEKAoIBAQDG
D4k/njUGGkiLd4gR0ClCU79+6TWytyogoi3OV2EdUxYPwpzCsV9R37K8j5S7yleJ
QTuViwd/+t+RAoCw+YIE+z0zw4XYOWe4XCsT1Ha1SoHwI3zieIT8eR3iRKtsfd9x
rvBmsQnam2iKTdOntIDGuNohkKSfFs3nkiblCB31FH46gypTDBNWNWO1T5iOlzMm
S1UNBIO2Lf61Aqb1WiF7l1GgDth5JiZuDRN4L4WbfjFR8mVytChQ91dBIKBCwak8
P2kaXJ0SagjpHpJQfCt3m2cW2FhbKtKO4y00+0M0mWaeko6EgHoRr/p+crRf0pvd
CwWhU0mkk04xS0DQ0CFDAgMBAAGjezB5MAkGA1UdEwQCMAAwLAYJYIZIAYb4QgEN
BB8WHU9wZW5TU0wgR2VuZXJhdGVkIENlcnRpZmljYXRlMB0GA1UdDgQWBBTwUeb8
S+iy+iA9jjyLSljUyGAd7DAfBgNVHSMEGDAWgBS7B027H/ZIkW3ngm1SrR0X/aTC
wDANBgkqhkiG9w0BAQUFAAOCAQEAGbFjX9v1+fLBZOlzknlMH+RF0ekxj8cUB4Fm
7K9XVBT2yqWSdJzG7CkVhXNJ6JCoVzvGu2W+r/+6ufEjfRcJSbAAevWHtprCLUM5
hGsu+CqCLV7lrA65JV8jd+l8636Sj7nVQNa4xOA2Tl9QmfxjoNxzGjREe+9QRUF1
7nJhn8eCdl3QijCatxqyiaqKxybDQyydtOKHsiG0y5IKeoVRaeHWuUBBn2DTrbkV
Pus76Vu9hQpiS0nvidwQwAUW2JEXz78f7w7lEOsIo4IdB8KS/HOI7hjgxscbmCCI
vWGuk/1fQx5lXSLjRUFUlf5OP4Fby3Eomp87RZ/OD2wOpmSZBA==
-----END CERTIFICATE-----
