Certificate:
    Data:
        Version: 3 (0x2)
        Serial Number: 4098 (0x1002)
        Signature Algorithm: sha1WithRSAEncryption
        Issuer: C=AU, ST=Some-State, O=Internet Widgits Pty Ltd
        Validity
            Not Before: May  1 15:01:31 2013 GMT
            Not After : Mar 10 15:01:31 2023 GMT
        Subject: C=AU, ST=Some-State, O=Internet Widgits Pty Ltd
        Subject Public Key Info:
            Public Key Algorithm: rsaEncryption
            RSA Public Key: (2048 bit)
                Modulus (2048 bit):
                    00:b0:fa:57:2b:a5:d5:9c:96:84:02:80:09:71:70:
                    cd:c6:8e:f0:71:67:7c:a3:ce:2e:92:81:72:91:05:
                    28:b9:e2:2d:09:d4:b5:f1:ce:75:8a:70:9e:4f:fc:
                    ed:7e:8f:ee:e2:2e:31:ca:f8:e5:aa:b1:ad:3e:11:
                    b2:93:c1:2b:be:d2:dc:76:d2:1d:33:fb:e6:09:17:
                    d1:96:12:80:b0:4f:96:87:d6:4a:2b:ff:4f:84:40:
                    b8:18:9f:10:5a:17:c1:82:db:10:1b:91:19:16:99:
                    b4:ae:d9:a2:c3:21:ec:b7:96:0e:e5:a8:06:b3:62:
                    a7:52:db:01:f4:52:34:83:8c:52:83:2f:1c:fd:2f:
                    0a:5f:16:6d:32:18:bd:c3:83:02:d6:f9:da:1b:62:
                    48:2d:d4:0e:85:ff:c3:f3:e8:3d:85:8f:06:0a:70:
                    cf:09:13:ac:3b:28:94:89:0d:4b:d7:72:fd:84:d7:
                    cc:26:85:9f:ea:17:f3:2d:14:01:78:72:80:75:7f:
                    90:0b:9f:3f:18:a9:8e:9e:c8:31:79:69:8f:d5:7d:
                    a1:d9:bd:77:62:ac:b9:4c:1f:af:e6:8a:27:bd:18:
                    15:4c:9c:95:85:d1:a8:79:b2:c6:ec:32:f7:29:9a:
                    70:c9:aa:48:98:8e:ed:9e:d6:82:c5:10:4e:f3:ce:
                    d5:3f
                Exponent: 65537 (0x10001)
        X509v3 extensions:
            X509v3 Basic Constraints: 
                CA:FALSE
            Netscape Comment: 
                OpenSSL Generated Certificate
            X509v3 Subject Key Identifier: 
                DC:38:42:E3:85:25:1D:88:BA:DD:44:5D:C2:15:90:D9:91:66:86:CC
            X509v3 Authority Key Identifier: 
                keyid:BB:07:4D:BB:1F:F6:48:91:6D:E7:82:6D:52:AD:1D:17:FD:A4:C2:C0

    Signature Algorithm: sha1WithRSAEncryption
        95:03:33:1e:59:d3:e8:bd:6a:a8:0e:21:2f:ab:40:04:f6:e2:
        32:c5:70:5f:22:82:71:f3:41:cc:19:fc:d9:69:31:81:b8:3b:
        32:9d:f5:7d:b4:7a:fe:ab:c6:79:73:ad:69:7e:88:74:f7:60:
        b5:57:fc:9e:1d:4d:51:19:34:32:61:41:3f:e8:1f:9f:07:cd:
        04:3f:a6:43:57:25:74:3b:7d:91:8d:8b:18:8a:cf:8a:2e:34:
        c5:bb:a0:17:5f:f1:a8:46:1c:64:c8:17:53:4f:1a:12:f4:36:
        20:75:f8:e8:9f:30:66:8a:8c:6b:62:a1:ad:4f:3f:9b:36:34:
        17:e5:04:14:e1:96:b4:a0:e0:53:3c:f7:77:20:4f:b1:dc:d5:
        ad:7f:92:5d:42:f0:1f:49:6a:65:7f:0d:b3:0e:4b:c9:fa:e5:
        56:dd:f1:42:f4:b9:3a:09:b8:91:89:6d:f2:4a:a1:17:c9:54:
        4b:75:93:6e:e0:03:ac:8b:37:35:a0:cf:45:64:ac:d6:22:d1:
        44:58:28:b2:05:2d:1c:de:ed:92:b9:2b:55:a1:de:06:8d:0a:
        6c:02:46:98:ca:ad:c5:26:34:5d:92:3d:58:1c:5f:7c:ff:54:
        b6:86:37:12:24:d6:35:55:8b:b6:e0:8d:dc:e4:af:af:23:fa:
        34:37:b8:04
-----BEGIN CERTIFICATE-----
MIIDgTCCAmmgAwIBAgICEAIwDQYJKoZIhvcNAQEFBQAwRTELMAkGA1UEBhMCQVUx
EzARBgNVBAgTClNvbWUtU3RhdGUxITAfBgNVBAoTGEludGVybmV0IFdpZGdpdHMg
UHR5IEx0ZDAeFw0xMzA1MDExNTAxMzFaFw0yMzAzMTAxNTAxMzFaMEUxCzAJBgNV
BAYTAkFVMRMwEQYDVQQIEwpTb21lLVN0YXRlMSEwHwYDVQQKExhJbnRlcm5ldCBX
aWRnaXRzIFB0eSBMdGQwggEiMA0GCSqGSIb3DQEBAQUAA4IBDwAwggEKAoIBAQCw
+lcrpdWcloQCgAlxcM3GjvBxZ3yjzi6SgXKRBSi54i0J1LXxznWKcJ5P/O1+j+7i
LjHK+OWqsa0+EbKTwSu+0tx20h0z++YJF9GWEoCwT5aH1kor/0+EQLgYnxBaF8GC
2xAbkRkWmbSu2aLDIey3lg7lqAazYqdS2wH0UjSDjFKDLxz9LwpfFm0yGL3DgwLW
+dobYkgt1A6F/8Pz6D2FjwYKcM8JE6w7KJSJDUvXcv2E18wmhZ/qF/MtFAF4coB1
f5ALnz8YqY6eyDF5aY/VfaHZvXdirLlMH6/miie9GBVMnJWF0ah5ssbsMvcpmnDJ
qkiYju2e1oLFEE7zztU/AgMBAAGjezB5MAkGA1UdEwQCMAAwLAYJYIZIAYb4QgEN
BB8WHU9wZW5TU0wgR2VuZXJhdGVkIENlcnRpZmljYXRlMB0GA1UdDgQWBBTcOELj
hSUdiLrdRF3CFZDZkWaGzDAfBgNVHSMEGDAWgBS7B027H/ZIkW3ngm1SrR0X/aTC
wDANBgkqhkiG9w0BAQUFAAOCAQEAlQMzHlnT6L1qqA4hL6tABPbiMsVwXyKCcfNB
zBn82Wkxgbg7Mp31fbR6/qvGeXOtaX6IdPdgtVf8nh1NURk0MmFBP+gfnwfNBD+m
Q1cldDt9kY2LGIrPii40xbugF1/xqEYcZMgXU08aEvQ2IHX46J8wZoqMa2KhrU8/
mzY0F+UEFOGWtKDgUzz3dyBPsdzVrX+SXULwH0lqZX8Nsw5LyfrlVt3xQvS5Ogm4
kYlt8kqhF8lUS3WTbuADrIs3NaDPRWSs1iLRRFgosgUtHN7tkrkrVaHeBo0KbAJG
mMqtxSY0XZI9WBxffP9UtoY3EiTWNVWLtuCN3OSvryP6NDe4BA==
-----END CERTIFICATE-----
